target datalayout = "e-m:e-p270:32:32-p271:32:32-p272:64:64-i64:64-f80:128-n8:16:32:64-S128"
target triple = "x86_64-pc-linux-gnu"

@.str = private unnamed_addr constant [6 x i8] c"%d %d\00", align 1
@.str.1 = private unnamed_addr constant [3 x i8] c"%d\00", align 1
@.str.2 = private unnamed_addr constant [4 x i8] c" %d\00", align 1
@.str.3 = private unnamed_addr constant [2 x i8] c"\0A\00", align 1

; Function Attrs: noinline nounwind uwtable
define dso_local i32 @main() #0 {
  %1 = alloca i32, align 4
  %2 = alloca [100 x [100 x i32]], align 16
  %3 = alloca [100 x [100 x i32]], align 16
  %4 = alloca [100 x [100 x i32]], align 16
  %5 = alloca i32, align 4
  %6 = alloca i32, align 4
  %7 = alloca i32, align 4
  %8 = alloca i32, align 4
  %9 = alloca i32, align 4
  %10 = alloca i32, align 4
  %11 = alloca i32, align 4
  store i32 0, i32* %1, align 4
  %12 = call i32 (i8*, ...) @__isoc99_scanf(i8* getelementptr inbounds ([6 x i8], [6 x i8]* @.str, i64 0, i64 0), i32* %5, i32* %6)
  store i32 0, i32* %9, align 4
  br label %13

13:                                               ; preds = %34, %0
  %14 = load i32, i32* %9, align 4
  %15 = load i32, i32* %5, align 4
  %16 = icmp slt i32 %14, %15
  br i1 %16, label %17, label %37

17:                                               ; preds = %13
  store i32 0, i32* %10, align 4
  br label %18

18:                                               ; preds = %30, %17
  %19 = load i32, i32* %10, align 4
  %20 = load i32, i32* %6, align 4
  %21 = icmp slt i32 %19, %20
  br i1 %21, label %22, label %33

22:                                               ; preds = %18
  %23 = load i32, i32* %9, align 4
  %24 = sext i32 %23 to i64
  %25 = getelementptr inbounds [100 x [100 x i32]], [100 x [100 x i32]]* %2, i64 0, i64 %24
  %26 = load i32, i32* %10, align 4
  %27 = sext i32 %26 to i64
  %28 = getelementptr inbounds [100 x i32], [100 x i32]* %25, i64 0, i64 %27
  %29 = call i32 (i8*, ...) @__isoc99_scanf(i8* getelementptr inbounds ([3 x i8], [3 x i8]* @.str.1, i64 0, i64 0), i32* %28)
  br label %30

30:                                               ; preds = %22
  %31 = load i32, i32* %10, align 4
  %32 = add nsw i32 %31, 1
  store i32 %32, i32* %10, align 4
  br label %18

33:                                               ; preds = %18
  br label %34

34:                                               ; preds = %33
  %35 = load i32, i32* %9, align 4
  %36 = add nsw i32 %35, 1
  store i32 %36, i32* %9, align 4
  br label %13

37:                                               ; preds = %13
  %38 = call i32 (i8*, ...) @__isoc99_scanf(i8* getelementptr inbounds ([6 x i8], [6 x i8]* @.str, i64 0, i64 0), i32* %7, i32* %8)
  store i32 0, i32* %9, align 4
  br label %39

39:                                               ; preds = %60, %37
  %40 = load i32, i32* %9, align 4
  %41 = load i32, i32* %7, align 4
  %42 = icmp slt i32 %40, %41
  br i1 %42, label %43, label %63

43:                                               ; preds = %39
  store i32 0, i32* %10, align 4
  br label %44

44:                                               ; preds = %56, %43
  %45 = load i32, i32* %10, align 4
  %46 = load i32, i32* %8, align 4
  %47 = icmp slt i32 %45, %46
  br i1 %47, label %48, label %59

48:                                               ; preds = %44
  %49 = load i32, i32* %9, align 4
  %50 = sext i32 %49 to i64
  %51 = getelementptr inbounds [100 x [100 x i32]], [100 x [100 x i32]]* %3, i64 0, i64 %50
  %52 = load i32, i32* %10, align 4
  %53 = sext i32 %52 to i64
  %54 = getelementptr inbounds [100 x i32], [100 x i32]* %51, i64 0, i64 %53
  %55 = call i32 (i8*, ...) @__isoc99_scanf(i8* getelementptr inbounds ([3 x i8], [3 x i8]* @.str.1, i64 0, i64 0), i32* %54)
  br label %56

56:                                               ; preds = %48
  %57 = load i32, i32* %10, align 4
  %58 = add nsw i32 %57, 1
  store i32 %58, i32* %10, align 4
  br label %44

59:                                               ; preds = %44
  br label %60

60:                                               ; preds = %59
  %61 = load i32, i32* %9, align 4
  %62 = add nsw i32 %61, 1
  store i32 %62, i32* %9, align 4
  br label %39

63:                                               ; preds = %39
  store i32 0, i32* %9, align 4
  br label %64

64:                                               ; preds = %122, %63
  %65 = load i32, i32* %9, align 4
  %66 = load i32, i32* %5, align 4
  %67 = icmp slt i32 %65, %66
  br i1 %67, label %68, label %125

68:                                               ; preds = %64
  store i32 0, i32* %10, align 4
  br label %69

69:                                               ; preds = %118, %68
  %70 = load i32, i32* %10, align 4
  %71 = load i32, i32* %8, align 4
  %72 = icmp slt i32 %70, %71
  br i1 %72, label %73, label %121

73:                                               ; preds = %69
  store i32 0, i32* %11, align 4
  %74 = load i32, i32* %9, align 4
  %75 = sext i32 %74 to i64
  %76 = getelementptr inbounds [100 x [100 x i32]], [100 x [100 x i32]]* %4, i64 0, i64 %75
  %77 = load i32, i32* %10, align 4
  %78 = sext i32 %77 to i64
  %79 = getelementptr inbounds [100 x i32], [100 x i32]* %76, i64 0, i64 %78
  store i32 0, i32* %79, align 4
  br label %80

80:                                               ; preds = %114, %73
  %81 = load i32, i32* %11, align 4
  %82 = load i32, i32* %6, align 4
  %83 = icmp slt i32 %81, %82
  br i1 %83, label %84, label %117

84:                                               ; preds = %80
  %85 = load i32, i32* %9, align 4
  %86 = sext i32 %85 to i64
  %87 = getelementptr inbounds [100 x [100 x i32]], [100 x [100 x i32]]* %4, i64 0, i64 %86
  %88 = load i32, i32* %10, align 4
  %89 = sext i32 %88 to i64
  %90 = getelementptr inbounds [100 x i32], [100 x i32]* %87, i64 0, i64 %89
  %91 = load i32, i32* %90, align 4
  %92 = load i32, i32* %9, align 4
  %93 = sext i32 %92 to i64
  %94 = getelementptr inbounds [100 x [100 x i32]], [100 x [100 x i32]]* %2, i64 0, i64 %93
  %95 = load i32, i32* %11, align 4
  %96 = sext i32 %95 to i64
  %97 = getelementptr inbounds [100 x i32], [100 x i32]* %94, i64 0, i64 %96
  %98 = load i32, i32* %97, align 4
  %99 = load i32, i32* %11, align 4
  %100 = sext i32 %99 to i64
  %101 = getelementptr inbounds [100 x [100 x i32]], [100 x [100 x i32]]* %3, i64 0, i64 %100
  %102 = load i32, i32* %10, align 4
  %103 = sext i32 %102 to i64
  %104 = getelementptr inbounds [100 x i32], [100 x i32]* %101, i64 0, i64 %103
  %105 = load i32, i32* %104, align 4
  %106 = mul nsw i32 %98, %105
  %107 = add nsw i32 %91, %106
  %108 = load i32, i32* %9, align 4
  %109 = sext i32 %108 to i64
  %110 = getelementptr inbounds [100 x [100 x i32]], [100 x [100 x i32]]* %4, i64 0, i64 %109
  %111 = load i32, i32* %10, align 4
  %112 = sext i32 %111 to i64
  %113 = getelementptr inbounds [100 x i32], [100 x i32]* %110, i64 0, i64 %112
  store i32 %107, i32* %113, align 4
  br label %114

114:                                              ; preds = %84
  %115 = load i32, i32* %11, align 4
  %116 = add nsw i32 %115, 1
  store i32 %116, i32* %11, align 4
  br label %80

117:                                              ; preds = %80
  br label %118

118:                                              ; preds = %117
  %119 = load i32, i32* %10, align 4
  %120 = add nsw i32 %119, 1
  store i32 %120, i32* %10, align 4
  br label %69

121:                                              ; preds = %69
  br label %122

122:                                              ; preds = %121
  %123 = load i32, i32* %9, align 4
  %124 = add nsw i32 %123, 1
  store i32 %124, i32* %9, align 4
  br label %64

125:                                              ; preds = %64
  store i32 0, i32* %9, align 4
  br label %126

126:                                              ; preds = %156, %125
  %127 = load i32, i32* %9, align 4
  %128 = load i32, i32* %5, align 4
  %129 = sub nsw i32 %128, 1
  %130 = icmp slt i32 %127, %129
  br i1 %130, label %131, label %159

131:                                              ; preds = %126
  %132 = load i32, i32* %9, align 4
  %133 = sext i32 %132 to i64
  %134 = getelementptr inbounds [100 x [100 x i32]], [100 x [100 x i32]]* %4, i64 0, i64 %133
  %135 = getelementptr inbounds [100 x i32], [100 x i32]* %134, i64 0, i64 0
  %136 = load i32, i32* %135, align 16
  %137 = call i32 (i8*, ...) @printf(i8* getelementptr inbounds ([3 x i8], [3 x i8]* @.str.1, i64 0, i64 0), i32 %136)
  store i32 1, i32* %10, align 4
  br label %138

138:                                              ; preds = %151, %131
  %139 = load i32, i32* %10, align 4
  %140 = load i32, i32* %8, align 4
  %141 = icmp slt i32 %139, %140
  br i1 %141, label %142, label %154

142:                                              ; preds = %138
  %143 = load i32, i32* %9, align 4
  %144 = sext i32 %143 to i64
  %145 = getelementptr inbounds [100 x [100 x i32]], [100 x [100 x i32]]* %4, i64 0, i64 %144
  %146 = load i32, i32* %10, align 4
  %147 = sext i32 %146 to i64
  %148 = getelementptr inbounds [100 x i32], [100 x i32]* %145, i64 0, i64 %147
  %149 = load i32, i32* %148, align 4
  %150 = call i32 (i8*, ...) @printf(i8* getelementptr inbounds ([4 x i8], [4 x i8]* @.str.2, i64 0, i64 0), i32 %149)
  br label %151

151:                                              ; preds = %142
  %152 = load i32, i32* %10, align 4
  %153 = add nsw i32 %152, 1
  store i32 %153, i32* %10, align 4
  br label %138

154:                                              ; preds = %138
  %155 = call i32 (i8*, ...) @printf(i8* getelementptr inbounds ([2 x i8], [2 x i8]* @.str.3, i64 0, i64 0))
  br label %156

156:                                              ; preds = %154
  %157 = load i32, i32* %9, align 4
  %158 = add nsw i32 %157, 1
  store i32 %158, i32* %9, align 4
  br label %126

159:                                              ; preds = %126
  %160 = load i32, i32* %5, align 4
  %161 = sub nsw i32 %160, 1
  %162 = sext i32 %161 to i64
  %163 = getelementptr inbounds [100 x [100 x i32]], [100 x [100 x i32]]* %4, i64 0, i64 %162
  %164 = getelementptr inbounds [100 x i32], [100 x i32]* %163, i64 0, i64 0
  %165 = load i32, i32* %164, align 16
  %166 = call i32 (i8*, ...) @printf(i8* getelementptr inbounds ([3 x i8], [3 x i8]* @.str.1, i64 0, i64 0), i32 %165)
  store i32 1, i32* %10, align 4
  br label %167

167:                                              ; preds = %181, %159
  %168 = load i32, i32* %10, align 4
  %169 = load i32, i32* %8, align 4
  %170 = icmp slt i32 %168, %169
  br i1 %170, label %171, label %184

171:                                              ; preds = %167
  %172 = load i32, i32* %5, align 4
  %173 = sub nsw i32 %172, 1
  %174 = sext i32 %173 to i64
  %175 = getelementptr inbounds [100 x [100 x i32]], [100 x [100 x i32]]* %4, i64 0, i64 %174
  %176 = load i32, i32* %10, align 4
  %177 = sext i32 %176 to i64
  %178 = getelementptr inbounds [100 x i32], [100 x i32]* %175, i64 0, i64 %177
  %179 = load i32, i32* %178, align 4
  %180 = call i32 (i8*, ...) @printf(i8* getelementptr inbounds ([4 x i8], [4 x i8]* @.str.2, i64 0, i64 0), i32 %179)
  br label %181

181:                                              ; preds = %171
  %182 = load i32, i32* %10, align 4
  %183 = add nsw i32 %182, 1
  store i32 %183, i32* %10, align 4
  br label %167

184:                                              ; preds = %167
  %185 = load i32, i32* %1, align 4
  ret i32 %185
}